(dp1
S'sg_version_data'
p2
(dp3
S'code'
p4
S'v0.2.7'
p5
sS'description'
p6
S'Fixes a high CPU usage issue on CentOS when using PySide 2.'
p7
sS'tags'
p8
(lp9
sS'sg_payload'
p10
(dp11
S'name'
p12
S'tk-framework-widget_v0.2.7.zip'
p13
sS'url'
p14
S'https://s3-proxy.shotgunstudio.com/d18c13bf0e59a9a82f18be518a1b6b508bcbd774/434e0ed8e8c713e8c555c726613f71e39ed16202/tk-framework-widget_v0.2.7.zip?response-content-disposition=filename%3D%22tk-framework-widget_v0.2.7.zip%22&x-amz-meta-user-id=12786&x-amz-meta-user-type=ApiUser&X-Amz-Algorithm=AWS4-HMAC-SHA256&X-Amz-Credential=ASIAYJG6Z4JI7QTDXS6Q%2F20210503%2Fus-west-2%2Fs3%2Faws4_request&X-Amz-Date=20210503T093329Z&X-Amz-Expires=900&X-Amz-SignedHeaders=host&X-Amz-Security-Token=FwoGZXIvYXdzEGoaDJB13jxItFWk9AfzWiKvAV6OxN8tui7cdMvYcL7FU8pO3ZgdnZFHCrAFcjUU%2FgCt48Df28q9r9WdjREgqvxRx13RdHQuFke7R9kEQyW44JilyWBiNgCMN%2BhOoftP1z26pXYdqFNv7jK5Q3AQDUWZvq11GzI7drGf%2BGbVaBPtSD%2Bm2dwMpFAB6gKoQWKigKrID5NySvu9fWKMEJdfZ4Lm02HilFkuGchKmoILYBdu9d10%2F8jiSMc9mLB6SRrJOCUo4Pi%2BhAYyLduIEGa53DxdyqB%2B9DY5siHRBYVJSUCWQd9aAhon9lkYbembX9W6WmgD%2BxSEBg%3D%3D&X-Amz-Signature=a145dab2cc1d1240d138641e52e5edfcbd6a1604068beba4a08b792dbf689ce4'
p15
sS'content_type'
p16
S'application/zip'
p17
sS'type'
p18
S'Attachment'
p19
sS'id'
p20
I19442
sS'link_type'
p21
S'upload'
p22
ssS'sg_status_list'
p23
S'prod'
p24
sS'sg_detailed_release_notes'
p25
NsS'sg_documentation'
p26
NsS'type'
p27
S'CustomNonProjectEntity09'
p28
sS'id'
p29
I702
ssS'sg_bundle_data'
p30
(dp31
S'sg_status_list'
p32
S'hidden'
p33
sS'type'
p34
S'CustomNonProjectEntity13'
p35
sS'id'
p36
I1
sS'sg_system_name'
p37
S'tk-framework-widget'
p38
sS'sg_deprecation_message'
p39
Nss.