(dp1
S'sg_version_data'
p2
(dp3
S'code'
p4
S'v1.1.2'
p5
sS'description'
p6
S'Updates the requests module.'
p7
sS'tags'
p8
(lp9
sS'sg_payload'
p10
(dp11
S'name'
p12
S'tk-framework-adobe_v1.1.2.zip'
p13
sS'url'
p14
S'https://s3-proxy.shotgunstudio.com/d18c13bf0e59a9a82f18be518a1b6b508bcbd774/65dee4bf3feef5bdc72cf07d664ff3dcddec12f6/tk-framework-adobe_v1.1.2.zip?response-content-disposition=filename%3D%22tk-framework-adobe_v1.1.2.zip%22&x-amz-meta-user-id=12786&x-amz-meta-user-type=ApiUser&X-Amz-Algorithm=AWS4-HMAC-SHA256&X-Amz-Credential=ASIAYJG6Z4JI4SQPK3WO%2F20210511%2Fus-west-2%2Fs3%2Faws4_request&X-Amz-Date=20210511T052148Z&X-Amz-Expires=900&X-Amz-SignedHeaders=host&X-Amz-Security-Token=FwoGZXIvYXdzECcaDNOCaTykKZDKZxa4GiKvAaqYddFOpgg0KTE4%2BuA4IKceF4qA2O89mLVrkhZIhxNhPhCNgqVJnIzATk2W2qHQu79Wvd3BHmgg%2FVzZxTeumdOXlC%2BojqDtZ7ly216xTajdcaRRlhFgK0SiN4PwJ3beEHKvO4jDQOSwTT5GpU533nC3ui4vXCYP0AX68FEpOPeptYkt0rBRfHFJmrXnwP0tVhYjrxQ6CMxKwl%2BlENj7lmuwWRqdX1xpoZKfcuhAkyso3aHohAYyLelYLFMIesl4%2FxLi7KJbcdprn1n0XNpieVcRPyg2mSz7luhWtI6xdLJODA2i6w%3D%3D&X-Amz-Signature=8ecd51c6830d4c9332ae533828b6e807df11fb9eb07953cf84a0c531a7681cab'
p15
sS'content_type'
p16
S'application/zip'
p17
sS'type'
p18
S'Attachment'
p19
sS'id'
p20
I24596
sS'link_type'
p21
S'upload'
p22
ssS'sg_status_list'
p23
S'prod'
p24
sS'sg_detailed_release_notes'
p25
(dp26
S'name'
p27
S'v1.1.2'
p28
sS'url'
p29
S'https://support.shotgunsoftware.com/hc/en-us/articles/360019620754#v1.1.2'
p30
sS'content_type'
p31
NsS'type'
p32
S'Attachment'
p33
sS'id'
p34
I24595
sS'link_type'
p35
S'web'
p36
ssS'sg_documentation'
p37
(dp38
S'name'
p39
S'Documentation'
p40
sS'url'
p41
S'https://support.shotgunsoftware.com/hc/en-us/articles/360019620754'
p42
sS'content_type'
p43
NsS'type'
p44
S'Attachment'
p45
sS'id'
p46
I24594
sS'link_type'
p47
S'web'
p48
ssS'type'
p49
S'CustomNonProjectEntity09'
p50
sS'id'
p51
I1437
ssS'sg_bundle_data'
p52
(dp53
S'sg_status_list'
p54
S'depl'
p55
sS'type'
p56
S'CustomNonProjectEntity13'
p57
sS'id'
p58
I18
sS'sg_system_name'
p59
S'tk-framework-adobe'
p60
sS'sg_deprecation_message'
p61
Nss.