(dp1
S'sg_version_data'
p2
(dp3
S'code'
p4
S'v0.5.2'
p5
sS'description'
p6
S'UI tweaks around error message positioning.'
p7
sS'tags'
p8
(lp9
sS'sg_payload'
p10
(dp11
S'name'
p12
S'tk-framework-adminui_v0.5.2.zip'
p13
sS'url'
p14
S'https://s3-proxy.shotgunstudio.com/d18c13bf0e59a9a82f18be518a1b6b508bcbd774/5086064cd8ed8c7b7c6f7868aac97934fee91c85/tk-framework-adminui_v0.5.2.zip?response-content-disposition=filename%3D%22tk-framework-adminui_v0.5.2.zip%22&x-amz-meta-user-id=12786&x-amz-meta-user-type=ApiUser&X-Amz-Algorithm=AWS4-HMAC-SHA256&X-Amz-Credential=ASIAYJG6Z4JIUAQ7YWFB%2F20210503%2Fus-west-2%2Fs3%2Faws4_request&X-Amz-Date=20210503T093325Z&X-Amz-Expires=900&X-Amz-SignedHeaders=host&X-Amz-Security-Token=FwoGZXIvYXdzEGsaDFy8xFdS7NlADsJFVSKvARpmXKO3OOvfFp4qoGhLd0ilX1Ve7EL2D1Pf1d3WZs5nghbPqOycvR7RiNvrhv1X4vk7WIJiGQGcJTfeuiiPlyxBSOHlfbkuuG2IAKpdbhGLM9nwOTcXoCo2pVRyYXZjktXQ0o%2BNabdX%2F%2BUe2h411tFgOt4QNxk4%2FMbnoA6rizKq3aSMxk%2B3L42%2BqDxusED8qsWasSM8wPDW7XCPTJRkHStZ03eY9OwSm%2Bt0TaLN9JMo14C%2FhAYyLfB%2FIzNaByanOa%2FOYaTsbyfNOw5wVulW40o%2FBnlq5s9SYVzg3aFDeLm3FhORgA%3D%3D&X-Amz-Signature=16b478c6c90b31686147076a8a8af06b6a9eae02082f981630e3455b775e8b24'
p15
sS'content_type'
p16
S'application/zip'
p17
sS'type'
p18
S'Attachment'
p19
sS'id'
p20
I20575
sS'link_type'
p21
S'upload'
p22
ssS'sg_status_list'
p23
S'prod'
p24
sS'sg_detailed_release_notes'
p25
(dp26
S'name'
p27
S'v0.5.2'
p28
sS'url'
p29
S'https://support.shotgunsoftware.com/hc/en-us/articles/219040048#v0.5.2'
p30
sS'content_type'
p31
NsS'type'
p32
S'Attachment'
p33
sS'id'
p34
I20572
sS'link_type'
p35
S'web'
p36
ssS'sg_documentation'
p37
(dp38
S'name'
p39
S'Documentation'
p40
sS'url'
p41
S'https://support.shotgunsoftware.com/hc/en-us/articles/219040048'
p42
sS'content_type'
p43
NsS'type'
p44
S'Attachment'
p45
sS'id'
p46
I20574
sS'link_type'
p47
S'web'
p48
ssS'type'
p49
S'CustomNonProjectEntity09'
p50
sS'id'
p51
I836
ssS'sg_bundle_data'
p52
(dp53
S'sg_status_list'
p54
S'depl'
p55
sS'type'
p56
S'CustomNonProjectEntity13'
p57
sS'id'
p58
I7
sS'sg_system_name'
p59
S'tk-framework-adminui'
p60
sS'sg_deprecation_message'
p61
Nss.