(dp1
S'sg_version_data'
p2
(dp3
S'code'
p4
S'v1.3.19'
p5
sS'description'
p6
S'[No wiki release notes found]'
p7
sS'tags'
p8
(lp9
sS'sg_payload'
p10
(dp11
S'name'
p12
S'tk-config-default2_v1.3.19.zip'
p13
sS'url'
p14
S'https://s3-proxy.shotgunstudio.com/d18c13bf0e59a9a82f18be518a1b6b508bcbd774/f7335646de27e7f0b99f64f976c71e0ec7b9e50b/tk-config-default2_v1.3.19.zip?response-content-disposition=filename%3D%22tk-config-default2_v1.3.19.zip%22&x-amz-meta-user-id=12786&x-amz-meta-user-type=ApiUser&X-Amz-Algorithm=AWS4-HMAC-SHA256&X-Amz-Credential=ASIAYJG6Z4JIVETLQAUY%2F20210527%2Fus-west-2%2Fs3%2Faws4_request&X-Amz-Date=20210527T104629Z&X-Amz-Expires=900&X-Amz-SignedHeaders=host&X-Amz-Security-Token=FwoGZXIvYXdzEKz%2F%2F%2F%2F%2F%2F%2F%2F%2F%2FwEaDPBantlzEnE2%2Feag8SKvATREFvAbdxAiNfTPPZQfRFv0gHLrLlotw%2BcGzwSVbli%2FQHAUq5%2Fb0x92dqmZwcl7J%2FUniGJ9UwvsYuyjen7%2BZb%2BzmJ4Pug%2B3eYwXCdhdxhTWnA6UhUQugwX5Gc3YXYgRO4b%2Ffuqs0wmEDU2Aw%2FJKvhAe31hwFRrJ57fZox%2Bg3%2FIrCfvtjQsSGTU9NHjA9xVkDbp7%2BjSUgJFLcV06VnJKPadxPjGfNv0L3kIcJLE01Dwo4e%2B9hQYyLa9yJ%2B0hlFEHqvvdoZkiwdI6nXoXPH%2B6L%2BvhQve6bjeH7RzmlQ1MLYadsT10%2Bg%3D%3D&X-Amz-Signature=77f12001a16377562cac4d037cec729568fd6579552a14e9758bba30e0539e55'
p15
sS'content_type'
p16
S'application/zip'
p17
sS'type'
p18
S'Attachment'
p19
sS'id'
p20
I25413
sS'link_type'
p21
S'upload'
p22
ssS'sg_status_list'
p23
S'prod'
p24
sS'sg_detailed_release_notes'
p25
(dp26
S'name'
p27
S'v1.3.19'
p28
sS'url'
p29
S'https://support.shotgunsoftware.com/hc/en-us/articles/360042159573#1_3_19'
p30
sS'content_type'
p31
NsS'type'
p32
S'Attachment'
p33
sS'id'
p34
I25417
sS'link_type'
p35
S'web'
p36
ssS'sg_documentation'
p37
NsS'type'
p38
S'CustomNonProjectEntity08'
p39
sS'id'
p40
I1895
ssS'sg_bundle_data'
p41
(dp42
S'sg_status_list'
p43
S'hidden'
p44
sS'type'
p45
S'CustomNonProjectEntity07'
p46
sS'id'
p47
I81
sS'sg_system_name'
p48
S'tk-config-default2'
p49
sS'sg_deprecation_message'
p50
Nss.