(dp1
S'sg_version_data'
p2
(dp3
S'code'
p4
S'v1.4.7'
p5
sS'description'
p6
S'Adds official support for Playlist entities, and more gracefully handles unsupported entity types.'
p7
sS'tags'
p8
(lp9
sS'sg_payload'
p10
(dp11
S'name'
p12
S'tk-framework-desktopserver_v1.4.7.zip'
p13
sS'url'
p14
S'https://s3-proxy.shotgunstudio.com/d18c13bf0e59a9a82f18be518a1b6b508bcbd774/29276736423053f8fdfbd267fee55ac08cfd65a1/tk-framework-desktopserver_v1.4.7.zip?response-content-disposition=filename%3D%22tk-framework-desktopserver_v1.4.7.zip%22&x-amz-meta-user-id=12786&x-amz-meta-user-type=ApiUser&X-Amz-Algorithm=AWS4-HMAC-SHA256&X-Amz-Credential=ASIAYJG6Z4JIUZTGO3OS%2F20210511%2Fus-west-2%2Fs3%2Faws4_request&X-Amz-Date=20210511T044016Z&X-Amz-Expires=900&X-Amz-SignedHeaders=host&X-Amz-Security-Token=FwoGZXIvYXdzECYaDO%2FKe87LZ7qe5Ac0ACKvASR24%2B4oCQ9gJU%2FKrOYocZ8TdVryl50QQifgi9DzSil5nNHNU%2FuLhjCTEHi3TSlB7bq94OKfP2CNt4GFWo0x%2FG7KEb300bsg57ax12X5hjn2tYsTnMoOHZl5w9EOGhsgv8dCO0AmHljg%2F0NekIVIMJJXB5psIopLm4xAB72v1EW%2FS1vzzcidT0p0qbbWQKW%2BnlAZ5B4VJ9cW%2BD64zchwjgHHr90l1Aja9%2FP%2Fs3gvMSwo7YfohAYyLX1v%2FZSthwYeutxG4nfZDNz0NdnwBB5TbwfgaRm2LPyvH%2FvzS7IDG8nVAAFsUA%3D%3D&X-Amz-Signature=8cc7bbb4d9c8b60966d4643e7633daa12dd62b45eaef77887d6a9ce38661317f'
p15
sS'content_type'
p16
S'application/zip'
p17
sS'type'
p18
S'Attachment'
p19
sS'id'
p20
I25198
sS'link_type'
p21
S'upload'
p22
ssS'sg_status_list'
p23
S'prod'
p24
sS'sg_detailed_release_notes'
p25
NsS'sg_documentation'
p26
NsS'type'
p27
S'CustomNonProjectEntity09'
p28
sS'id'
p29
I1536
ssS'sg_bundle_data'
p30
(dp31
S'sg_status_list'
p32
S'depl'
p33
sS'type'
p34
S'CustomNonProjectEntity13'
p35
sS'id'
p36
I15
sS'sg_system_name'
p37
S'tk-framework-desktopserver'
p38
sS'sg_deprecation_message'
p39
Nss.