(dp1
S'sg_version_data'
p2
(dp3
S'code'
p4
S'v5.7.10'
p5
sS'description'
p6
S'Fixes a bug to make "Open in Associated Application" work with SG Create'
p7
sS'tags'
p8
(lp9
sS'sg_payload'
p10
(dp11
S'name'
p12
S'tk-framework-shotgunutils_v5.7.10.zip'
p13
sS'url'
p14
S'https://s3-proxy.shotgunstudio.com/d18c13bf0e59a9a82f18be518a1b6b508bcbd774/1f80af7c6d973ee1031bbc78ee63724df4bb8135/tk-framework-shotgunutils_v5.7.10.zip?response-content-disposition=filename%3D%22tk-framework-shotgunutils_v5.7.10.zip%22&x-amz-meta-user-id=12786&x-amz-meta-user-type=ApiUser&X-Amz-Algorithm=AWS4-HMAC-SHA256&X-Amz-Credential=ASIAYJG6Z4JI5LY3IHEK%2F20210430%2Fus-west-2%2Fs3%2Faws4_request&X-Amz-Date=20210430T111401Z&X-Amz-Expires=900&X-Amz-SignedHeaders=host&X-Amz-Security-Token=FwoGZXIvYXdzECQaDDaYYGZceojGkbL%2BSSKvAXD1za8gNw6RJ3%2B2Y23Uw9vN2Y4%2BhcX06gvElVmTOZB2vIA8g7bpR4DctCP3OCpaOsqKHdaQQLkpvikrpSkv5AZTq1Qd61AUTZX%2BwcziQNO3gTfZ%2BmiNRyOTGit2KMT7FBeWrUfYGrPXCLW3XJydS2qDtCUSwp2Fvy0f0EyFuS0xy2g9U%2FzpCgRGWqBIlitk%2BUz4w5HBNZ%2FEBTgRpnmC8oLccHC12UuKjHSQIywhiOIoh8ivhAYyLXaYVhZamW6Dgl0FOWFHj9yq6Kx%2FvoiqNlRpGXomt%2Bew0WE40aG6fmPiBccyyg%3D%3D&X-Amz-Signature=7d81fe00b457196010a2589aa3159de5bc3aeae5a5546c9dabd59b96caa44069'
p15
sS'content_type'
p16
S'application/zip'
p17
sS'type'
p18
S'Attachment'
p19
sS'id'
p20
I24095
sS'link_type'
p21
S'upload'
p22
ssS'sg_status_list'
p23
S'prod'
p24
sS'sg_detailed_release_notes'
p25
(dp26
S'name'
p27
S'v5.7.10'
p28
sS'url'
p29
S'https://support.shotgunsoftware.com/hc/en-us/articles/219040008#v5.7.10'
p30
sS'content_type'
p31
NsS'type'
p32
S'Attachment'
p33
sS'id'
p34
I24092
sS'link_type'
p35
S'web'
p36
ssS'sg_documentation'
p37
(dp38
S'name'
p39
S'Documentation'
p40
sS'url'
p41
S'https://support.shotgunsoftware.com/hc/en-us/articles/219040008'
p42
sS'content_type'
p43
NsS'type'
p44
S'Attachment'
p45
sS'id'
p46
I24094
sS'link_type'
p47
S'web'
p48
ssS'type'
p49
S'CustomNonProjectEntity09'
p50
sS'id'
p51
I1371
ssS'sg_bundle_data'
p52
(dp53
S'sg_status_list'
p54
S'depl'
p55
sS'type'
p56
S'CustomNonProjectEntity13'
p57
sS'id'
p58
I3
sS'sg_system_name'
p59
S'tk-framework-shotgunutils'
p60
sS'sg_deprecation_message'
p61
Nss.