(dp1
S'sg_version_data'
p2
(dp3
S'code'
p4
S'v1.1.0'
p5
sS'description'
p6
S'Python 3 compatibility.'
p7
sS'tags'
p8
(lp9
sS'sg_payload'
p10
(dp11
S'name'
p12
S'tk-nuke-quickreview_v1.1.0.zip'
p13
sS'url'
p14
S'https://s3-proxy.shotgunstudio.com/d18c13bf0e59a9a82f18be518a1b6b508bcbd774/90c79483dc36ae470efe058fb36ff04c49177298/tk-nuke-quickreview_v1.1.0.zip?response-content-disposition=filename%3D%22tk-nuke-quickreview_v1.1.0.zip%22&x-amz-meta-user-id=12786&x-amz-meta-user-type=ApiUser&X-Amz-Algorithm=AWS4-HMAC-SHA256&X-Amz-Credential=ASIAYJG6Z4JISXOHR43U%2F20210511%2Fus-west-2%2Fs3%2Faws4_request&X-Amz-Date=20210511T095347Z&X-Amz-Expires=900&X-Amz-SignedHeaders=host&X-Amz-Security-Token=FwoGZXIvYXdzECsaDBHzWSc0CnvAPRivgCKvAWVW6gxU8MwuRcqpe7oWrnT8Jxe%2BuMtXFNb79iSZAh5D9TgqSMJGx87x0HmSuuUH9W5a2jGr03bAi7KkJe17wKWR%2FvtRNxut5%2BlMnlZ96GQSJddHQm59KbBccz5c2lnkZp9YFN3wlwAq9mU2x7s%2BGX8tZAHzpTELZQjNLLvJ3V%2F7K3v9GTLDKBDjrP2y0BFSs7uADDHdxLxQ2JjWcZsX9R0ME4SXJnQaYurLGPKL8sIouZHphAYyLcDdSU75yD%2BcGeZofmVvuQ3WbvKqH8ds3ZpnnlJvhlwcFfHSLfKvLFKWjJe8BA%3D%3D&X-Amz-Signature=70a424ab687921d33a529eec0da0a88732131bca84d4041ffe9762cfe8a67a15'
p15
sS'content_type'
p16
S'application/zip'
p17
sS'type'
p18
S'Attachment'
p19
sS'id'
p20
I25076
sS'link_type'
p21
S'upload'
p22
ssS'sg_status_list'
p23
S'prod'
p24
sS'sg_detailed_release_notes'
p25
(dp26
S'name'
p27
S'v1.1.0'
p28
sS'url'
p29
S'https://support.shotgunsoftware.com/hc/en-us/articles/360000037393#v1.1.0'
p30
sS'content_type'
p31
NsS'type'
p32
S'Attachment'
p33
sS'id'
p34
I25075
sS'link_type'
p35
S'web'
p36
ssS'sg_documentation'
p37
(dp38
S'name'
p39
S'Documentation'
p40
sS'url'
p41
S'https://support.shotgunsoftware.com/hc/en-us/articles/360000037393'
p42
sS'content_type'
p43
NsS'type'
p44
S'Attachment'
p45
sS'id'
p46
I25074
sS'link_type'
p47
S'web'
p48
ssS'type'
p49
S'CustomNonProjectEntity05'
p50
sS'id'
p51
I3754
ssS'sg_bundle_data'
p52
(dp53
S'sg_status_list'
p54
S'depl'
p55
sS'type'
p56
S'CustomNonProjectEntity02'
p57
sS'id'
p58
I233
sS'sg_system_name'
p59
S'tk-nuke-quickreview'
p60
sS'sg_deprecation_message'
p61
Nss.