(dp1
S'sg_version_data'
p2
(dp3
S'code'
p4
S'v1.3.19'
p5
sS'description'
p6
S'[No wiki release notes found]'
p7
sS'tags'
p8
(lp9
sS'sg_payload'
p10
(dp11
S'name'
p12
S'tk-config-basic_v1.3.19.zip'
p13
sS'url'
p14
S'https://s3-proxy.shotgunstudio.com/d18c13bf0e59a9a82f18be518a1b6b508bcbd774/ecf2effdef1ec61eb70129ebd7ddcf581f873843/tk-config-basic_v1.3.19.zip?response-content-disposition=filename%3D%22tk-config-basic_v1.3.19.zip%22&x-amz-meta-user-id=12786&x-amz-meta-user-type=ApiUser&X-Amz-Algorithm=AWS4-HMAC-SHA256&X-Amz-Credential=ASIAYJG6Z4JIU4AOJC4V%2F20210511%2Fus-west-2%2Fs3%2Faws4_request&X-Amz-Date=20210511T094728Z&X-Amz-Expires=900&X-Amz-SignedHeaders=host&X-Amz-Security-Token=FwoGZXIvYXdzECsaDM5ylj9cgbBaMnAB8SKvAWR%2B77j%2FMIUOUf1cht0pjVl800PeT%2FizoXw5tlDAaet6mbPC8sBj4ovNGd7Tz8munf%2FBF57kEe6xrUYPo0Chr%2FOdxyPSzj4ZzXBL%2FFoaWaegXdB1tqkyfWeyd6aGdE5Uv8v%2FnUY8yFRzn%2FOal2hfLWfuEobCL5cD5sIls3bKKo33mwzviHg3ZSknrPPfPtNtSxaLx%2Bjgv43zoSbmn2CuikKu%2FKILw2ijshyPqEohOmAo153phAYyLV3trzWU%2BAhakOP23X8S19q8%2BdXQ2ZQVD9FhORa93kSKyCr5X%2BURkh%2FMFQUBGg%3D%3D&X-Amz-Signature=ce76758478bfdd72d2a80968ab90f18e0f3c487a283c32c216eba4cdcb911ef1'
p15
sS'content_type'
p16
S'application/zip'
p17
sS'type'
p18
S'Attachment'
p19
sS'id'
p20
I25415
sS'link_type'
p21
S'upload'
p22
ssS'sg_status_list'
p23
S'prod'
p24
sS'sg_detailed_release_notes'
p25
(dp26
S'name'
p27
S'v1.3.19'
p28
sS'url'
p29
S'https://support.shotgunsoftware.com/hc/en-us/articles/360042159573#1_3_19'
p30
sS'content_type'
p31
NsS'type'
p32
S'Attachment'
p33
sS'id'
p34
I25416
sS'link_type'
p35
S'web'
p36
ssS'sg_documentation'
p37
NsS'type'
p38
S'CustomNonProjectEntity08'
p39
sS'id'
p40
I1896
ssS'sg_bundle_data'
p41
(dp42
S'sg_status_list'
p43
S'depl'
p44
sS'type'
p45
S'CustomNonProjectEntity07'
p46
sS'id'
p47
I47
sS'sg_system_name'
p48
S'tk-config-basic'
p49
sS'sg_deprecation_message'
p50
Nss.