(dp1
S'sg_version_data'
p2
(dp3
S'code'
p4
S'v1.2.5'
p5
sS'description'
p6
S'Fixes an issue with the stack trace not being displayed when the executed code errors in the Python console. This only occurred when running the Python console outside of a Shotgun Engine.'
p7
sS'tags'
p8
(lp9
sS'sg_payload'
p10
(dp11
S'name'
p12
S'tk-multi-pythonconsole_v1.2.5.zip'
p13
sS'url'
p14
S'https://s3-proxy.shotgunstudio.com/d18c13bf0e59a9a82f18be518a1b6b508bcbd774/0f742a77a0f512e89674d929a9815cb24fe2f2e0/tk-multi-pythonconsole_v1.2.5.zip?response-content-disposition=filename%3D%22tk-multi-pythonconsole_v1.2.5.zip%22&x-amz-meta-user-id=12786&x-amz-meta-user-type=ApiUser&X-Amz-Algorithm=AWS4-HMAC-SHA256&X-Amz-Credential=ASIAYJG6Z4JI6SUO2UH2%2F20210430%2Fus-west-2%2Fs3%2Faws4_request&X-Amz-Date=20210430T111424Z&X-Amz-Expires=900&X-Amz-SignedHeaders=host&X-Amz-Security-Token=FwoGZXIvYXdzECQaDI9xJ3sUK38vxJ6q1SKvAc3DJ3%2FzoxdM3sauoZAPwEBbEgBkzDvbISIGZ7p8Q2bk47%2FUDeTtf%2Fry9T0r87kl40KG%2FXh4QQYnbJLiUDj%2Fmnuzf2qPz4gOzSQxBrkcemXfslSa8sy454e0yIToFZuhJ485kTGbOLHx6rLq384PCXC9FEs9aYctNn2YqGI6jEIbJzsgJzmkK5QId8IWaxW6kY3FFq2X3ARTXBGQERILQtpGKgCQF4bbrfs%2FiOCaLiIo37qvhAYyLfWOKl%2BQz%2BzildbjnBtvmGLXGnx6gSN%2FWkQnFUcDR0p09CSOQRa7ss%2BjzmDZ%2BA%3D%3D&X-Amz-Signature=6ca5b1d5ef6c0d47e73ecb2221b6009de78a7880588147c005822dd7bedc6bc2'
p15
sS'content_type'
p16
S'application/zip'
p17
sS'type'
p18
S'Attachment'
p19
sS'id'
p20
I23765
sS'link_type'
p21
S'upload'
p22
ssS'sg_status_list'
p23
S'prod'
p24
sS'sg_detailed_release_notes'
p25
(dp26
S'name'
p27
S'v1.2.5'
p28
sS'url'
p29
S'https://support.shotgunsoftware.com/hc/en-us/articles/219033108#v1.2.5'
p30
sS'content_type'
p31
NsS'type'
p32
S'Attachment'
p33
sS'id'
p34
I23762
sS'link_type'
p35
S'web'
p36
ssS'sg_documentation'
p37
(dp38
S'name'
p39
S'Documentation'
p40
sS'url'
p41
S'https://support.shotgunsoftware.com/hc/en-us/articles/219033108'
p42
sS'content_type'
p43
NsS'type'
p44
S'Attachment'
p45
sS'id'
p46
I23764
sS'link_type'
p47
S'web'
p48
ssS'type'
p49
S'CustomNonProjectEntity05'
p50
sS'id'
p51
I3354
ssS'sg_bundle_data'
p52
(dp53
S'sg_status_list'
p54
S'depl'
p55
sS'type'
p56
S'CustomNonProjectEntity02'
p57
sS'id'
p58
I155
sS'sg_system_name'
p59
S'tk-multi-pythonconsole'
p60
sS'sg_deprecation_message'
p61
Nss.