(dp1
S'sg_version_data'
p2
(dp3
S'code'
p4
S'v0.19.19'
p5
sS'description'
p6
S'Minor change to exception handling for pick_environment.'
p7
sS'tags'
p8
(lp9
sS'sg_payload'
p10
(dp11
S'name'
p12
S'sgtk_core_v0.19.19.zip'
p13
sS'url'
p14
S'https://s3-proxy.shotgunstudio.com/d18c13bf0e59a9a82f18be518a1b6b508bcbd774/6004d961c2b2f4bd6a38a7d1f57a14503079cece/sgtk_core_v0.19.19.zip?response-content-disposition=filename%3D%22sgtk_core_v0.19.19.zip%22&x-amz-meta-user-id=12786&x-amz-meta-user-type=ApiUser&X-Amz-Algorithm=AWS4-HMAC-SHA256&X-Amz-Credential=ASIAYJG6Z4JI7HZYBMGB%2F20210511%2Fus-west-2%2Fs3%2Faws4_request&X-Amz-Date=20210511T043559Z&X-Amz-Expires=900&X-Amz-SignedHeaders=host&X-Amz-Security-Token=FwoGZXIvYXdzECUaDNllPMm3%2FnCpNPnsLiKvAcIahdiSoRq6DdYT3sPsk8Urw5ETNue4fN5ErcxDeAxVQXQoi8EFq%2BlRkNZGU4gUUR85q6gEDvQxhMxH2k0VOvBwpDYRWkkpXjbrq1%2FovOvruDVQ1IPH97nGFIZ4yHe3hTvRHx7kuHZQo8N6dHdFzt2hGfcpO8UAmOjnhTUL%2BbkeUHTfS3%2F9bFgr7qBaDXTgz%2F%2BEfbq5QvM4nrZdSOSN5n%2B00rbhfqmwe5y0Za3NlRYo8f7nhAYyLZtwmnl8ScyXF74tHFzkl0QGo%2FdWMofn15qB6vbUBNx%2FgsFvelK6ZK%2BsuTOWUw%3D%3D&X-Amz-Signature=0fe3db813e57482ef211ea2b91f10a5bfde8231f176530797386d7cad9f2023d'
p15
sS'content_type'
p16
S'application/zip'
p17
sS'type'
p18
S'Attachment'
p19
sS'id'
p20
I25196
sS'link_type'
p21
S'upload'
p22
ssS'sg_status_list'
p23
S'prod'
p24
sS'sg_detailed_release_notes'
p25
(dp26
S'name'
p27
S'v0.19.19'
p28
sS'url'
p29
S'https://support.shotgunsoftware.com/hc/en-us/articles/219039838#v0.19.19'
p30
sS'content_type'
p31
NsS'type'
p32
S'Attachment'
p33
sS'id'
p34
I25194
sS'link_type'
p35
S'web'
p36
ssS'sg_documentation'
p37
(dp38
S'name'
p39
S'Documentation'
p40
sS'url'
p41
S'https://support.shotgunsoftware.com/hc/en-us/articles/219039808'
p42
sS'content_type'
p43
NsS'type'
p44
S'Attachment'
p45
sS'id'
p46
I25195
sS'link_type'
p47
S'web'
p48
ssS'type'
p49
S'CustomNonProjectEntity01'
p50
sS'id'
p51
I1134
ssS'sg_bundle_data'
p52
Ns.