(dp1
S'sg_version_data'
p2
(dp3
S'code'
p4
S'v2.9.4'
p5
sS'description'
p6
S'Fixes an issue in the global search widget where matches with unicode characters in them would not appear.'
p7
sS'tags'
p8
(lp9
sS'sg_payload'
p10
(dp11
S'name'
p12
S'tk-framework-qtwidgets_v2.9.4.zip'
p13
sS'url'
p14
S'https://s3-proxy.shotgunstudio.com/d18c13bf0e59a9a82f18be518a1b6b508bcbd774/43351dc70c462636656fbcfc2bc2b52dce9556db/tk-framework-qtwidgets_v2.9.4.zip?response-content-disposition=filename%3D%22tk-framework-qtwidgets_v2.9.4.zip%22&x-amz-meta-user-id=12786&x-amz-meta-user-type=ApiUser&X-Amz-Algorithm=AWS4-HMAC-SHA256&X-Amz-Credential=ASIAYJG6Z4JI5LY3IHEK%2F20210430%2Fus-west-2%2Fs3%2Faws4_request&X-Amz-Date=20210430T111408Z&X-Amz-Expires=900&X-Amz-SignedHeaders=host&X-Amz-Security-Token=FwoGZXIvYXdzECQaDDaYYGZceojGkbL%2BSSKvAXD1za8gNw6RJ3%2B2Y23Uw9vN2Y4%2BhcX06gvElVmTOZB2vIA8g7bpR4DctCP3OCpaOsqKHdaQQLkpvikrpSkv5AZTq1Qd61AUTZX%2BwcziQNO3gTfZ%2BmiNRyOTGit2KMT7FBeWrUfYGrPXCLW3XJydS2qDtCUSwp2Fvy0f0EyFuS0xy2g9U%2FzpCgRGWqBIlitk%2BUz4w5HBNZ%2FEBTgRpnmC8oLccHC12UuKjHSQIywhiOIoh8ivhAYyLXaYVhZamW6Dgl0FOWFHj9yq6Kx%2FvoiqNlRpGXomt%2Bew0WE40aG6fmPiBccyyg%3D%3D&X-Amz-Signature=2a9c9506f9f0451d569a0e691ca45edcd78af2b6520106a126992f3dc353f9b0'
p15
sS'content_type'
p16
S'application/zip'
p17
sS'type'
p18
S'Attachment'
p19
sS'id'
p20
I23666
sS'link_type'
p21
S'upload'
p22
ssS'sg_status_list'
p23
S'prod'
p24
sS'sg_detailed_release_notes'
p25
(dp26
S'name'
p27
S'v2.9.4'
p28
sS'url'
p29
S'https://support.shotgunsoftware.com/hc/en-us/articles/219040018#v2.9.4'
p30
sS'content_type'
p31
NsS'type'
p32
S'Attachment'
p33
sS'id'
p34
I23663
sS'link_type'
p35
S'web'
p36
ssS'sg_documentation'
p37
(dp38
S'name'
p39
S'Documentation'
p40
sS'url'
p41
S'https://support.shotgunsoftware.com/hc/en-us/articles/219040018'
p42
sS'content_type'
p43
NsS'type'
p44
S'Attachment'
p45
sS'id'
p46
I23665
sS'link_type'
p47
S'web'
p48
ssS'type'
p49
S'CustomNonProjectEntity09'
p50
sS'id'
p51
I1173
ssS'sg_bundle_data'
p52
(dp53
S'sg_status_list'
p54
S'depl'
p55
sS'type'
p56
S'CustomNonProjectEntity13'
p57
sS'id'
p58
I5
sS'sg_system_name'
p59
S'tk-framework-qtwidgets'
p60
sS'sg_deprecation_message'
p61
Nss.