(dp1
S'sg_version_data'
p2
(dp3
S'code'
p4
S'v1.3.19'
p5
sS'description'
p6
S'[No wiki release notes found]'
p7
sS'tags'
p8
(lp9
sS'sg_payload'
p10
(dp11
S'name'
p12
S'tk-config-default2_v1.3.19.zip'
p13
sS'url'
p14
S'https://s3-proxy.shotgunstudio.com/d18c13bf0e59a9a82f18be518a1b6b508bcbd774/f7335646de27e7f0b99f64f976c71e0ec7b9e50b/tk-config-default2_v1.3.19.zip?response-content-disposition=filename%3D%22tk-config-default2_v1.3.19.zip%22&x-amz-meta-user-id=12786&x-amz-meta-user-type=ApiUser&X-Amz-Algorithm=AWS4-HMAC-SHA256&X-Amz-Credential=ASIAYJG6Z4JI45RW3RND%2F20210511%2Fus-west-2%2Fs3%2Faws4_request&X-Amz-Date=20210511T214904Z&X-Amz-Expires=900&X-Amz-SignedHeaders=host&X-Amz-Security-Token=FwoGZXIvYXdzEDcaDCruKQO06lN7bLyjuiKvAeC0QNVW8VzDj3TY68%2B9%2BlWo6GWBISxNj9lNYRWB%2F1dYMTQv1W1uCFxyVy%2BhVErP8eNeEMloZaJVUQV0Tr%2FH6B7V5pK5CeOwzwGBiJ2GKpJZA136%2F%2FMZCqJlcIwj3jOSuSD4FekqyqihQ8hTICgiMRpxPDiLAFBh2BWxcM9HslkOjzSEzmfGp8tFf0OQetAyu7flt9RvluHJwJXcAI3LqCMo943Fh%2F0WLWMpjuATZSooh%2B7rhAYyLTT6I9b%2BAKoNnrVSPgTP%2BaewO553s71QZoBrCQdSntPdoVXV0JY5Gh12mTvPxA%3D%3D&X-Amz-Signature=b57374f764c275c4c653f1f52bd85d470bad2867d5f5eab968d4f9b935ebee17'
p15
sS'content_type'
p16
S'application/zip'
p17
sS'type'
p18
S'Attachment'
p19
sS'id'
p20
I25413
sS'link_type'
p21
S'upload'
p22
ssS'sg_status_list'
p23
S'prod'
p24
sS'sg_detailed_release_notes'
p25
(dp26
S'name'
p27
S'v1.3.19'
p28
sS'url'
p29
S'https://support.shotgunsoftware.com/hc/en-us/articles/360042159573#1_3_19'
p30
sS'content_type'
p31
NsS'type'
p32
S'Attachment'
p33
sS'id'
p34
I25417
sS'link_type'
p35
S'web'
p36
ssS'sg_documentation'
p37
NsS'type'
p38
S'CustomNonProjectEntity08'
p39
sS'id'
p40
I1895
ssS'sg_bundle_data'
p41
(dp42
S'sg_status_list'
p43
S'hidden'
p44
sS'type'
p45
S'CustomNonProjectEntity07'
p46
sS'id'
p47
I81
sS'sg_system_name'
p48
S'tk-config-default2'
p49
sS'sg_deprecation_message'
p50
Nss.