(dp1
S'sg_version_data'
p2
(dp3
S'code'
p4
S'v1.20.3'
p5
sS'description'
p6
S'Adds Python 3 support for the Nuke hook.'
p7
sS'tags'
p8
(lp9
sS'sg_payload'
p10
(dp11
S'name'
p12
S'tk-multi-loader2_v1.20.3.zip'
p13
sS'url'
p14
S'https://s3-proxy.shotgunstudio.com/d18c13bf0e59a9a82f18be518a1b6b508bcbd774/08974f64bdd5e96c04fdc6d52251a2c6b46d713a/tk-multi-loader2_v1.20.3.zip?response-content-disposition=filename%3D%22tk-multi-loader2_v1.20.3.zip%22&x-amz-meta-user-id=12786&x-amz-meta-user-type=ApiUser&X-Amz-Algorithm=AWS4-HMAC-SHA256&X-Amz-Credential=ASIAYJG6Z4JIY6HLDEHR%2F20210511%2Fus-west-2%2Fs3%2Faws4_request&X-Amz-Date=20210511T095334Z&X-Amz-Expires=900&X-Amz-SignedHeaders=host&X-Amz-Security-Token=FwoGZXIvYXdzECsaDCsT7vBePWxGORZCHiKvAVn%2B7oOZ3KPUtn0gM%2FmpS3eTgilZqKN%2BJjQgZ9gPVxF8ZdPZkqHMSHlwFYTWSiGVEyX8A8L4Dyi0uyRNYkjLYZvOKHiSuzCjCxhM6Hc8Qst%2FkyaU3A%2F5fQ2My5H0hnrBHUBoQDtUCEqJgf59RQgsmI74aUBk0%2BsU%2B0so7xc4In81N0KB5B2iA9rV2ZKkcDb03VoQgJQs3asYqn4GguhfJrUJcQq8bTqFM41g%2Bj7j0%2BIolKXphAYyLYIAX8%2BOPwkbS9%2FbvvROFBXWPBlcG%2BxIRMkVsIr1LFn%2FJnxJccd6VGcD%2BPtLew%3D%3D&X-Amz-Signature=a8d06cae2a6d60434ce178a5c78e0f8537b3d85c8075e9497d7d62bf660233cd'
p15
sS'content_type'
p16
S'application/zip'
p17
sS'type'
p18
S'Attachment'
p19
sS'id'
p20
I25084
sS'link_type'
p21
S'upload'
p22
ssS'sg_status_list'
p23
S'prod'
p24
sS'sg_detailed_release_notes'
p25
(dp26
S'name'
p27
S'v1.20.3'
p28
sS'url'
p29
S'https://support.shotgunsoftware.com/hc/en-us/articles/219033078#v1.20.3'
p30
sS'content_type'
p31
NsS'type'
p32
S'Attachment'
p33
sS'id'
p34
I25083
sS'link_type'
p35
S'web'
p36
ssS'sg_documentation'
p37
(dp38
S'name'
p39
S'Documentation'
p40
sS'url'
p41
S'https://support.shotgunsoftware.com/hc/en-us/articles/219033078'
p42
sS'content_type'
p43
NsS'type'
p44
S'Attachment'
p45
sS'id'
p46
I25082
sS'link_type'
p47
S'web'
p48
ssS'type'
p49
S'CustomNonProjectEntity05'
p50
sS'id'
p51
I3756
ssS'sg_bundle_data'
p52
(dp53
S'sg_status_list'
p54
S'depl'
p55
sS'type'
p56
S'CustomNonProjectEntity02'
p57
sS'id'
p58
I129
sS'sg_system_name'
p59
S'tk-multi-loader2'
p60
sS'sg_deprecation_message'
p61
Nss.