(dp1
S'sg_version_data'
p2
(dp3
S'code'
p4
S'v2.5.13'
p5
sS'description'
p6
S'Updated the about box.'
p7
sS'tags'
p8
(lp9
sS'sg_payload'
p10
(dp11
S'name'
p12
S'tk-desktop_v2.5.13.zip'
p13
sS'url'
p14
S'https://s3-proxy.shotgunstudio.com/d18c13bf0e59a9a82f18be518a1b6b508bcbd774/45e44d312d39a68d643a66e34a867a45717706fe/tk-desktop_v2.5.13.zip?response-content-disposition=filename%3D%22tk-desktop_v2.5.13.zip%22&x-amz-meta-user-id=12786&x-amz-meta-user-type=ApiUser&X-Amz-Algorithm=AWS4-HMAC-SHA256&X-Amz-Credential=ASIAYJG6Z4JIQQNVTFFR%2F20210430%2Fus-west-2%2Fs3%2Faws4_request&X-Amz-Date=20210430T111429Z&X-Amz-Expires=900&X-Amz-SignedHeaders=host&X-Amz-Security-Token=FwoGZXIvYXdzECQaDK%2FAXrDVVz2zP%2BbooyKvAQ01VQWjy1B4Z0%2B1eL9J%2FhfrBOtV3G3%2BF100u%2FqHlsDhn7wvbG1Falv2BnF7kWqwwERmUPud7znD%2BSvMSz5Vc61nn76Ux5MqpQCnMJslLY0sXhL3XQoCnvhalFyCXTDnPqNIqQ4PQIEKFFpPCqw%2BuBSf4huaPe3rPyBktqxCjyr72MC02hmyq6lZRqSSi2e4EdSFOgxFkDKOwkDcIroETBuHrNdf8NiiUjp9mxhAbRAogb%2BvhAYyLVCOwiX%2BIWEXbXWYh%2FiMXaMPcGH38536Riqr3rEg0z1DcBGcS754SltDfUY3rg%3D%3D&X-Amz-Signature=cdfbe314cc05436bdefe6778ee135cdef11a3d4a302287a6eda476f7b7cd50c4'
p15
sS'content_type'
p16
S'application/zip'
p17
sS'type'
p18
S'Attachment'
p19
sS'id'
p20
I24524
sS'link_type'
p21
S'upload'
p22
ssS'sg_status_list'
p23
S'prod'
p24
sS'sg_detailed_release_notes'
p25
(dp26
S'name'
p27
S'v2.5.13'
p28
sS'url'
p29
S'https://support.shotgunsoftware.com/hc/en-us/articles/219039818#v2.5.13'
p30
sS'content_type'
p31
NsS'type'
p32
S'Attachment'
p33
sS'id'
p34
I24523
sS'link_type'
p35
S'web'
p36
ssS'sg_documentation'
p37
(dp38
S'name'
p39
S'Documentation'
p40
sS'url'
p41
S'https://support.shotgunsoftware.com/hc/en-us/articles/219039818'
p42
sS'content_type'
p43
NsS'type'
p44
S'Attachment'
p45
sS'id'
p46
I24522
sS'link_type'
p47
S'web'
p48
ssS'type'
p49
S'CustomNonProjectEntity04'
p50
sS'id'
p51
I1994
ssS'sg_bundle_data'
p52
(dp53
S'sg_status_list'
p54
S'hidden'
p55
sS'type'
p56
S'CustomNonProjectEntity03'
p57
sS'id'
p58
I49
sS'sg_system_name'
p59
S'tk-desktop'
p60
sS'sg_deprecation_message'
p61
Nss.