(dp1
S'sg_version_data'
p2
(dp3
S'code'
p4
S'v0.3.3'
p5
sS'description'
p6
S'Fixed a bug so that "Jump to the File System" works on Windows when drive letter mapping is used.'
p7
sS'tags'
p8
(lp9
sS'sg_payload'
p10
(dp11
S'name'
p12
S'tk-multi-about_v0.3.3.zip'
p13
sS'url'
p14
S'https://s3-proxy.shotgunstudio.com/d18c13bf0e59a9a82f18be518a1b6b508bcbd774/d8be411cb287a388c11e913f6c01d256d810da41/tk-multi-about_v0.3.3.zip?response-content-disposition=filename%3D%22tk-multi-about_v0.3.3.zip%22&x-amz-meta-user-id=12786&x-amz-meta-user-type=ApiUser&X-Amz-Algorithm=AWS4-HMAC-SHA256&X-Amz-Credential=ASIAYJG6Z4JISEZROAG5%2F20210430%2Fus-west-2%2Fs3%2Faws4_request&X-Amz-Date=20210430T111535Z&X-Amz-Expires=900&X-Amz-SignedHeaders=host&X-Amz-Security-Token=FwoGZXIvYXdzECQaDOHCkSvP5tOw%2BLVhhSKvActNLx47xZrXWCnNV4mJZwICVFew%2BLsfUHiEFUS7jp9EE7GoJt40FiQY1O%2FEbrzB3aeUZE5TXdOzpdytzvGJZoTt1VJdO%2Bhdndp07GXHyMtpTG6KM3vy7Kf020Ef2fHJfmVehbeZSIgwTOTz%2FStBUpr64cDxCotA%2BfV7ahdkmSz%2BpP2nkPFAStKduU2BJ5imefToDCvAhJ7U1uuc0z3fqaC9r%2FPw%2Bt5RgXsAEFvUpiYourevhAYyLXBy%2F8NlToQmxo%2BzrrAOhYxkYwHnY2HVeoigbD7xVc8%2Fp%2F7hRV3w9qxoU3Dbsw%3D%3D&X-Amz-Signature=523438976f0a6e412591867670923379417993abccaa98d28152cd006d59e9f8'
p15
sS'content_type'
p16
S'application/zip'
p17
sS'type'
p18
S'Attachment'
p19
sS'id'
p20
I24161
sS'link_type'
p21
S'upload'
p22
ssS'sg_status_list'
p23
S'prod'
p24
sS'sg_detailed_release_notes'
p25
(dp26
S'name'
p27
S'v0.3.3'
p28
sS'url'
p29
S'https://support.shotgunsoftware.com/hc/en-us/articles/219032958#v0.3.3'
p30
sS'content_type'
p31
NsS'type'
p32
S'Attachment'
p33
sS'id'
p34
I24158
sS'link_type'
p35
S'web'
p36
ssS'sg_documentation'
p37
(dp38
S'name'
p39
S'Documentation'
p40
sS'url'
p41
S'https://support.shotgunsoftware.com/hc/en-us/articles/219032958'
p42
sS'content_type'
p43
NsS'type'
p44
S'Attachment'
p45
sS'id'
p46
I24160
sS'link_type'
p47
S'web'
p48
ssS'type'
p49
S'CustomNonProjectEntity05'
p50
sS'id'
p51
I3486
ssS'sg_bundle_data'
p52
(dp53
S'sg_status_list'
p54
S'depl'
p55
sS'type'
p56
S'CustomNonProjectEntity02'
p57
sS'id'
p58
I42
sS'sg_system_name'
p59
S'tk-multi-about'
p60
sS'sg_deprecation_message'
p61
Nss.