(dp1
S'sg_version_data'
p2
(dp3
S'code'
p4
S'v0.8.2'
p5
sS'description'
p6
S'Updated to require core 18.24 for QT5 compatibility.'
p7
sS'tags'
p8
(lp9
sS'sg_payload'
p10
(dp11
S'name'
p12
S'tk-shotgun_v0.8.2.zip'
p13
sS'url'
p14
S'https://s3-proxy.shotgunstudio.com/d18c13bf0e59a9a82f18be518a1b6b508bcbd774/624f9478f0cb5d59fe19e1ad48eccc24f35d2008/tk-shotgun_v0.8.2.zip?response-content-disposition=filename%3D%22tk-shotgun_v0.8.2.zip%22&x-amz-meta-user-id=12786&x-amz-meta-user-type=ApiUser&X-Amz-Algorithm=AWS4-HMAC-SHA256&X-Amz-Credential=ASIAYJG6Z4JIXUZC6EPC%2F20210503%2Fus-west-2%2Fs3%2Faws4_request&X-Amz-Date=20210503T093430Z&X-Amz-Expires=900&X-Amz-SignedHeaders=host&X-Amz-Security-Token=FwoGZXIvYXdzEGsaDLZG7pcI88IbN%2BNRxSKvAYpRDfJbY44Hji7uHMrAnVqG6SPAGhN78rIs8aF05eeamF9RurQZ7MSNu%2Bjev2rQ5TF1vrSRx%2Bb9MCPkxRdo%2BmyA98eherfgzM3RgalRT5TqW20NgTrmDe6F3kUThhW%2Bnavq8UH8Yr8VpNPiwPWnsa5yTKTXq6E%2BCGpB%2BneELFCYg8hIfiDTUsvec5vMsiGGRTA%2F6WMWVHx89afbaYoVqrc3KnazutSX2vB2%2BCAqP%2Bsoi4K%2FhAYyLeJVgftnIWzrzyVe2ZYvLMIrd2XXtKV5zs5frlOyp19tkjM8JZFG%2FrwD3evWCA%3D%3D&X-Amz-Signature=180b058b4463b6c2279e4c3137a3756952b2b639230c3d2eeccb1dadb636e167'
p15
sS'content_type'
p16
S'application/zip'
p17
sS'type'
p18
S'Attachment'
p19
sS'id'
p20
I19892
sS'link_type'
p21
S'upload'
p22
ssS'sg_status_list'
p23
S'prod'
p24
sS'sg_detailed_release_notes'
p25
(dp26
S'name'
p27
S'v0.8.2'
p28
sS'url'
p29
S'https://support.shotgunsoftware.com/hc/en-us/articles/219032918#v0.8.2'
p30
sS'content_type'
p31
NsS'type'
p32
S'Attachment'
p33
sS'id'
p34
I19889
sS'link_type'
p35
S'web'
p36
ssS'sg_documentation'
p37
(dp38
S'name'
p39
S'Documentation'
p40
sS'url'
p41
S'https://support.shotgunsoftware.com/hc/en-us/articles/219032918'
p42
sS'content_type'
p43
NsS'type'
p44
S'Attachment'
p45
sS'id'
p46
I19891
sS'link_type'
p47
S'web'
p48
ssS'type'
p49
S'CustomNonProjectEntity04'
p50
sS'id'
p51
I945
ssS'sg_bundle_data'
p52
(dp53
S'sg_status_list'
p54
S'depl'
p55
sS'type'
p56
S'CustomNonProjectEntity03'
p57
sS'id'
p58
I5
sS'sg_system_name'
p59
S'tk-shotgun'
p60
sS'sg_deprecation_message'
p61
Nss.