(dp1
S'sg_version_data'
p2
(dp3
S'code'
p4
S'v2.0.11'
p5
sS'description'
p6
S'Alias 2022 support for tk-alias engine'
p7
sS'tags'
p8
(lp9
sS'sg_payload'
p10
(dp11
S'name'
p12
S'tk-alias_v2.0.11.zip'
p13
sS'url'
p14
S'https://s3-proxy.shotgunstudio.com/d18c13bf0e59a9a82f18be518a1b6b508bcbd774/15557cff8d1067ca4a4bd039b8175558fbb84858/tk-alias_v2.0.11.zip?response-content-disposition=filename%3D%22tk-alias_v2.0.11.zip%22&x-amz-meta-user-id=12786&x-amz-meta-user-type=ApiUser&X-Amz-Algorithm=AWS4-HMAC-SHA256&X-Amz-Credential=ASIAYJG6Z4JIR4RNVYKB%2F20210511%2Fus-west-2%2Fs3%2Faws4_request&X-Amz-Date=20210511T095317Z&X-Amz-Expires=900&X-Amz-SignedHeaders=host&X-Amz-Security-Token=FwoGZXIvYXdzECsaDLWR8K%2FWxdqvRtC1oyKvATALW4Z9BI1cIahoC3eLaWeClQBLXuaGFlA7%2BAY73m7nGd0HVovm%2F9ljHkL5T9rlLY4tMWxMXCfIvuwsCW6AeBjxjxzVVkBDUMbNaQbO9bPZIkR2IA7UierqwU%2FFF8wLSUMMsODZTK1z%2B3FIdAd5bZJg958ykbUt0jCpAfwsKosFy99oD8uc1NWFT2emymgRoV7Lp9PogAGbYYqnhJuXFgvzGcF1DnC2%2FS8nvPJ37zko7pzphAYyLbSySEiPCrgf1QLv7ZgbVkqkDhkRlgZeRo7T97sfLFbyiWwfVzAA5iY43qAN7g%3D%3D&X-Amz-Signature=ba4c8a904cb1b4d5c9d5e59dd6c112acd70e6d2c4de4e8654e9b319d24525ceb'
p15
sS'content_type'
p16
S'application/zip'
p17
sS'type'
p18
S'Attachment'
p19
sS'id'
p20
I25320
sS'link_type'
p21
S'upload'
p22
ssS'sg_status_list'
p23
S'prod'
p24
sS'sg_detailed_release_notes'
p25
(dp26
S'name'
p27
S'v2.0.11'
p28
sS'url'
p29
S'https://support.shotgunsoftware.com/hc/en-us/articles/360007496974#v2.0.11'
p30
sS'content_type'
p31
NsS'type'
p32
S'Attachment'
p33
sS'id'
p34
I25319
sS'link_type'
p35
S'web'
p36
ssS'sg_documentation'
p37
(dp38
S'name'
p39
S'Documentation'
p40
sS'url'
p41
S'https://support.shotgunsoftware.com/hc/en-us/articles/360007496974'
p42
sS'content_type'
p43
NsS'type'
p44
S'Attachment'
p45
sS'id'
p46
I25318
sS'link_type'
p47
S'web'
p48
ssS'type'
p49
S'CustomNonProjectEntity04'
p50
sS'id'
p51
I2259
ssS'sg_bundle_data'
p52
(dp53
S'sg_status_list'
p54
S'depl'
p55
sS'type'
p56
S'CustomNonProjectEntity03'
p57
sS'id'
p58
I122
sS'sg_system_name'
p59
S'tk-alias'
p60
sS'sg_deprecation_message'
p61
Nss.