(dp1
S'sg_version_data'
p2
(dp3
S'code'
p4
S'v1.0.1'
p5
sS'description'
p6
S'Enabled support for "Review with VRED" for other 3D formats (Alias File, Catpart File, Jt File, Igs File).\n"Review with VRED" now supports viewing multiple versions by using Shotgun playlists.'
p7
sS'tags'
p8
(lp9
sS'sg_payload'
p10
(dp11
S'name'
p12
S'tk-shotgun-launchvredreview_v1.0.1.zip'
p13
sS'url'
p14
S'https://s3-proxy.shotgunstudio.com/d18c13bf0e59a9a82f18be518a1b6b508bcbd774/c2be4e7690fd9e0e9d49ce1a4bb2b0a6e4e07b1a/tk-shotgun-launchvredreview_v1.0.1.zip?response-content-disposition=filename%3D%22tk-shotgun-launchvredreview_v1.0.1.zip%22&x-amz-meta-user-id=12786&x-amz-meta-user-type=ApiUser&X-Amz-Algorithm=AWS4-HMAC-SHA256&X-Amz-Credential=ASIAYJG6Z4JIY6HLDEHR%2F20210511%2Fus-west-2%2Fs3%2Faws4_request&X-Amz-Date=20210511T095343Z&X-Amz-Expires=900&X-Amz-SignedHeaders=host&X-Amz-Security-Token=FwoGZXIvYXdzECsaDCsT7vBePWxGORZCHiKvAVn%2B7oOZ3KPUtn0gM%2FmpS3eTgilZqKN%2BJjQgZ9gPVxF8ZdPZkqHMSHlwFYTWSiGVEyX8A8L4Dyi0uyRNYkjLYZvOKHiSuzCjCxhM6Hc8Qst%2FkyaU3A%2F5fQ2My5H0hnrBHUBoQDtUCEqJgf59RQgsmI74aUBk0%2BsU%2B0so7xc4In81N0KB5B2iA9rV2ZKkcDb03VoQgJQs3asYqn4GguhfJrUJcQq8bTqFM41g%2Bj7j0%2BIolKXphAYyLYIAX8%2BOPwkbS9%2FbvvROFBXWPBlcG%2BxIRMkVsIr1LFn%2FJnxJccd6VGcD%2BPtLew%3D%3D&X-Amz-Signature=881d6ef35a377f7e8919179d5bfa2c1dacfe9798c89d55611c81ea940895c135'
p15
sS'content_type'
p16
S'application/zip'
p17
sS'type'
p18
S'Attachment'
p19
sS'id'
p20
I25281
sS'link_type'
p21
S'upload'
p22
ssS'sg_status_list'
p23
S'prod'
p24
sS'sg_detailed_release_notes'
p25
NsS'sg_documentation'
p26
NsS'type'
p27
S'CustomNonProjectEntity05'
p28
sS'id'
p29
I3849
ssS'sg_bundle_data'
p30
(dp31
S'sg_status_list'
p32
S'hidden'
p33
sS'type'
p34
S'CustomNonProjectEntity02'
p35
sS'id'
p36
I269
sS'sg_system_name'
p37
S'tk-shotgun-launchvredreview'
p38
sS'sg_deprecation_message'
p39
Nss.