(dp1
S'sg_version_data'
p2
(dp3
S'code'
p4
S'v0.1.3'
p5
sS'description'
p6
S'Performance updates'
p7
sS'tags'
p8
(lp9
sS'sg_payload'
p10
(dp11
S'name'
p12
S'tk-framework-lmv_v0.1.3.zip'
p13
sS'url'
p14
S'https://s3-proxy.shotgunstudio.com/d18c13bf0e59a9a82f18be518a1b6b508bcbd774/fd160ea202b283758242144a64a675b20fc30dcf/tk-framework-lmv_v0.1.3.zip?response-content-disposition=filename%3D%22tk-framework-lmv_v0.1.3.zip%22&x-amz-meta-user-id=12786&x-amz-meta-user-type=ApiUser&X-Amz-Algorithm=AWS4-HMAC-SHA256&X-Amz-Credential=ASIAYJG6Z4JIR4RNVYKB%2F20210511%2Fus-west-2%2Fs3%2Faws4_request&X-Amz-Date=20210511T094917Z&X-Amz-Expires=900&X-Amz-SignedHeaders=host&X-Amz-Security-Token=FwoGZXIvYXdzECsaDLWR8K%2FWxdqvRtC1oyKvATALW4Z9BI1cIahoC3eLaWeClQBLXuaGFlA7%2BAY73m7nGd0HVovm%2F9ljHkL5T9rlLY4tMWxMXCfIvuwsCW6AeBjxjxzVVkBDUMbNaQbO9bPZIkR2IA7UierqwU%2FFF8wLSUMMsODZTK1z%2B3FIdAd5bZJg958ykbUt0jCpAfwsKosFy99oD8uc1NWFT2emymgRoV7Lp9PogAGbYYqnhJuXFgvzGcF1DnC2%2FS8nvPJ37zko7pzphAYyLbSySEiPCrgf1QLv7ZgbVkqkDhkRlgZeRo7T97sfLFbyiWwfVzAA5iY43qAN7g%3D%3D&X-Amz-Signature=ea899403170084afc75cd31e9b9ff67cd4267abc59c2d9ee4ba76fe17f048d91'
p15
sS'content_type'
p16
S'application/zip'
p17
sS'type'
p18
S'Attachment'
p19
sS'id'
p20
I25116
sS'link_type'
p21
S'upload'
p22
ssS'sg_status_list'
p23
S'prod'
p24
sS'sg_detailed_release_notes'
p25
NsS'sg_documentation'
p26
NsS'type'
p27
S'CustomNonProjectEntity09'
p28
sS'id'
p29
I1503
ssS'sg_bundle_data'
p30
(dp31
S'sg_status_list'
p32
S'depl'
p33
sS'type'
p34
S'CustomNonProjectEntity13'
p35
sS'id'
p36
I117
sS'sg_system_name'
p37
S'tk-framework-lmv'
p38
sS'sg_deprecation_message'
p39
Nss.