(dp1
S'sg_version_data'
p2
(dp3
S'code'
p4
S'v0.10.3'
p5
sS'description'
p6
S'Fixes multiple launch args being combined as one on Mac.'
p7
sS'tags'
p8
(lp9
sS'sg_payload'
p10
(dp11
S'name'
p12
S'tk-multi-launchapp_v0.10.3.zip'
p13
sS'url'
p14
S'https://s3-proxy.shotgunstudio.com/d18c13bf0e59a9a82f18be518a1b6b508bcbd774/459197e8637d7c6c3e68a6ccba18dbbf83107c5f/tk-multi-launchapp_v0.10.3.zip?response-content-disposition=filename%3D%22tk-multi-launchapp_v0.10.3.zip%22&x-amz-meta-user-id=12786&x-amz-meta-user-type=ApiUser&X-Amz-Algorithm=AWS4-HMAC-SHA256&X-Amz-Credential=ASIAYJG6Z4JIY46JJM2Z%2F20210503%2Fus-west-2%2Fs3%2Faws4_request&X-Amz-Date=20210503T093658Z&X-Amz-Expires=900&X-Amz-SignedHeaders=host&X-Amz-Security-Token=FwoGZXIvYXdzEGoaDAn2LbKfOtDj%2F1EvuiKvAep5c4oQ9zUypAi5ZTaSaMQKW6YhzOI5wwHRhCXmtyloRKi9UdaQqJ6wJhkMvcFuoDPcfzpSDdVYEjezp8nGiMzBcUY5CQVDxkzlflSOmdTIJ5KaeIJnusgAd%2BCOf9B6z2EOVSJwCsojnVZxNYdJTZUDZbVtPbti9MNOMAG7H0GoLL5tQm0xWo9TQJqSxDT8PGacYgj%2B5gN2TOxpPaGnzPf2BB2SXzhQd3lVA4cwHIMovfi%2BhAYyLYKYx7PURa3Y%2F67sK%2FI0Q9R3Vg9zw5LdCcJyirPsjmv9gWLCqvmJ1YWPijV3pg%3D%3D&X-Amz-Signature=add1b4bce3890822d14563939a7ffc6dc6c341c2e1ede15c4913954db97ed6d5'
p15
sS'content_type'
p16
S'application/zip'
p17
sS'type'
p18
S'Attachment'
p19
sS'id'
p20
I21085
sS'link_type'
p21
S'upload'
p22
ssS'sg_status_list'
p23
S'prod'
p24
sS'sg_detailed_release_notes'
p25
(dp26
S'name'
p27
S'v0.10.3'
p28
sS'url'
p29
S'https://support.shotgunsoftware.com/hc/en-us/articles/219032968#v0.10.3'
p30
sS'content_type'
p31
NsS'type'
p32
S'Attachment'
p33
sS'id'
p34
I21082
sS'link_type'
p35
S'web'
p36
ssS'sg_documentation'
p37
(dp38
S'name'
p39
S'Documentation'
p40
sS'url'
p41
S'https://support.shotgunsoftware.com/hc/en-us/articles/219032968'
p42
sS'content_type'
p43
NsS'type'
p44
S'Attachment'
p45
sS'id'
p46
I21084
sS'link_type'
p47
S'web'
p48
ssS'type'
p49
S'CustomNonProjectEntity05'
p50
sS'id'
p51
I2913
ssS'sg_bundle_data'
p52
(dp53
S'sg_status_list'
p54
S'depl'
p55
sS'type'
p56
S'CustomNonProjectEntity02'
p57
sS'id'
p58
I49
sS'sg_system_name'
p59
S'tk-multi-launchapp'
p60
sS'sg_deprecation_message'
p61
Nss.