(dp1
S'sg_version_data'
p2
(dp3
S'code'
p4
S'v0.4.0'
p5
sS'description'
p6
S'Get and set frame range methods broken out into hooks.'
p7
sS'tags'
p8
(lp9
sS'sg_payload'
p10
(dp11
S'name'
p12
S'tk-multi-setframerange_v0.4.0.zip'
p13
sS'url'
p14
S'https://s3-proxy.shotgunstudio.com/d18c13bf0e59a9a82f18be518a1b6b508bcbd774/59c06b56ddb39348fc1e39d2cc5c20961b9e37d5/tk-multi-setframerange_v0.4.0.zip?response-content-disposition=filename%3D%22tk-multi-setframerange_v0.4.0.zip%22&x-amz-meta-user-id=12786&x-amz-meta-user-type=ApiUser&X-Amz-Algorithm=AWS4-HMAC-SHA256&X-Amz-Credential=ASIAYJG6Z4JI7QTDXS6Q%2F20210503%2Fus-west-2%2Fs3%2Faws4_request&X-Amz-Date=20210503T093648Z&X-Amz-Expires=900&X-Amz-SignedHeaders=host&X-Amz-Security-Token=FwoGZXIvYXdzEGoaDJB13jxItFWk9AfzWiKvAV6OxN8tui7cdMvYcL7FU8pO3ZgdnZFHCrAFcjUU%2FgCt48Df28q9r9WdjREgqvxRx13RdHQuFke7R9kEQyW44JilyWBiNgCMN%2BhOoftP1z26pXYdqFNv7jK5Q3AQDUWZvq11GzI7drGf%2BGbVaBPtSD%2Bm2dwMpFAB6gKoQWKigKrID5NySvu9fWKMEJdfZ4Lm02HilFkuGchKmoILYBdu9d10%2F8jiSMc9mLB6SRrJOCUo4Pi%2BhAYyLduIEGa53DxdyqB%2B9DY5siHRBYVJSUCWQd9aAhon9lkYbembX9W6WmgD%2BxSEBg%3D%3D&X-Amz-Signature=e086f141d94437fe5926cf185a56fe761f0ae23a2c2b5beb1d7999f7b498768e'
p15
sS'content_type'
p16
S'application/zip'
p17
sS'type'
p18
S'Attachment'
p19
sS'id'
p20
I21331
sS'link_type'
p21
S'upload'
p22
ssS'sg_status_list'
p23
S'prod'
p24
sS'sg_detailed_release_notes'
p25
(dp26
S'name'
p27
S'v0.4.0'
p28
sS'url'
p29
S'https://support.shotgunsoftware.com/hc/en-us/articles/219033038#v0.4.0'
p30
sS'content_type'
p31
NsS'type'
p32
S'Attachment'
p33
sS'id'
p34
I21328
sS'link_type'
p35
S'web'
p36
ssS'sg_documentation'
p37
(dp38
S'name'
p39
S'Documentation'
p40
sS'url'
p41
S'https://support.shotgunsoftware.com/hc/en-us/articles/219033038'
p42
sS'content_type'
p43
NsS'type'
p44
S'Attachment'
p45
sS'id'
p46
I21330
sS'link_type'
p47
S'web'
p48
ssS'type'
p49
S'CustomNonProjectEntity05'
p50
sS'id'
p51
I2927
ssS'sg_bundle_data'
p52
(dp53
S'sg_status_list'
p54
S'depl'
p55
sS'type'
p56
S'CustomNonProjectEntity02'
p57
sS'id'
p58
I39
sS'sg_system_name'
p59
S'tk-multi-setframerange'
p60
sS'sg_deprecation_message'
p61
Nss.